target datalayout = "e-m:e-p270:32:32-p271:32:32-p272:64:64-i64:64-i128:128-f80:128-n8:16:32:64-S128"
target triple = "x86_64-pc-linux-gnu"

%struct.png_color_8_struct = type { i8, i8, i8, i8, i8 }
%struct.png_color_16_struct = type { i8, i16, i16, i16, i16 }
%struct.png_colorspace = type { i32, %struct.png_xy, %struct.png_XYZ, i16, i16 }
%struct.png_xy = type { i32, i32, i32, i32, i32, i32, i32, i32 }
%struct.png_XYZ = type { i32, i32, i32, i32, i32, i32, i32, i32, i32 }
%struct.png_info_def = type { i32, i32, i32, i64, ptr, i16, i16, i8, i8, i8, i8, i8, i8, i8, i8, [8 x i8], %struct.png_colorspace, ptr, ptr, i32, i32, i32, ptr, %struct.png_time_struct, %struct.png_color_8_struct, ptr, %struct.png_color_16_struct, %struct.png_color_16_struct, i32, i32, i8, i32, i32, i8, i32, ptr, ptr, ptr, ptr, i32, i32, ptr, ptr, i8, i8, i32, ptr, i32, ptr, i32, i8, ptr, ptr, ptr }
%struct.png_time_struct = type { i16, i8, i8, i8, i8, i8 }

; Function Attrs: nounwind uwtable
define i32 @png_get_cHRM_XYZ_fixed(ptr noalias noundef %0, ptr noalias noundef %1, ptr noundef %2, ptr noundef %3, ptr noundef %4, ptr noundef %5, ptr noundef %6, ptr noundef %7, ptr noundef %8, ptr noundef %9, ptr noundef %10) #0 {
  %12 = alloca i32, align 4
  %13 = alloca ptr, align 8
  %14 = alloca ptr, align 8
  %15 = alloca ptr, align 8
  %16 = alloca ptr, align 8
  %17 = alloca ptr, align 8
  %18 = alloca ptr, align 8
  %19 = alloca ptr, align 8
  %20 = alloca ptr, align 8
  %21 = alloca ptr, align 8
  %22 = alloca ptr, align 8
  %23 = alloca ptr, align 8
  store ptr %0, ptr %13, align 8
  store ptr %1, ptr %14, align 8
  store ptr %2, ptr %15, align 8
  store ptr %3, ptr %16, align 8
  store ptr %4, ptr %17, align 8
  store ptr %5, ptr %18, align 8
  store ptr %6, ptr %19, align 8
  store ptr %7, ptr %20, align 8
  store ptr %8, ptr %21, align 8
  store ptr %9, ptr %22, align 8
  store ptr %10, ptr %23, align 8
  %24 = load ptr, ptr %13, align 8
  %25 = icmp ne ptr %24, null
  br i1 %25, label %26, label %128

26:                                               ; preds = %11
  %27 = load ptr, ptr %14, align 8
  %28 = icmp ne ptr %27, null
  br i1 %28, label %29, label %128

29:                                               ; preds = %26
  %30 = load ptr, ptr %14, align 8
  %31 = getelementptr inbounds %struct.png_info_def, ptr %30, i32 0, i32 16
  %32 = getelementptr inbounds %struct.png_colorspace, ptr %31, i32 0, i32 4
  %33 = load i16, ptr %32, align 2
  %34 = zext i16 %33 to i32
  %35 = and i32 %34, 2
  %36 = icmp ne i32 %35, 0
  br i1 %36, label %37, label %128

37:                                               ; preds = %29
  %38 = load ptr, ptr %15, align 8
  %39 = icmp ne ptr %38, null
  br i1 %39, label %40, label %47

40:                                               ; preds = %37
  %41 = load ptr, ptr %14, align 8
  %42 = getelementptr inbounds %struct.png_info_def, ptr %41, i32 0, i32 16
  %43 = getelementptr inbounds %struct.png_colorspace, ptr %42, i32 0, i32 2
  %44 = getelementptr inbounds %struct.png_XYZ, ptr %43, i32 0, i32 0
  %45 = load i32, ptr %44, align 4
  %46 = load ptr, ptr %15, align 8
  store i32 %45, ptr %46, align 4
  br label %47

47:                                               ; preds = %40, %37
  %48 = load ptr, ptr %16, align 8
  %49 = icmp ne ptr %48, null
  br i1 %49, label %50, label %57

50:                                               ; preds = %47
  %51 = load ptr, ptr %14, align 8
  %52 = getelementptr inbounds %struct.png_info_def, ptr %51, i32 0, i32 16
  %53 = getelementptr inbounds %struct.png_colorspace, ptr %52, i32 0, i32 2
  %54 = getelementptr inbounds %struct.png_XYZ, ptr %53, i32 0, i32 1
  %55 = load i32, ptr %54, align 4
  %56 = load ptr, ptr %16, align 8
  store i32 %55, ptr %56, align 4
  br label %57

57:                                               ; preds = %50, %47
  %58 = load ptr, ptr %17, align 8
  %59 = icmp ne ptr %58, null
  br i1 %59, label %60, label %67

60:                                               ; preds = %57
  %61 = load ptr, ptr %14, align 8
  %62 = getelementptr inbounds %struct.png_info_def, ptr %61, i32 0, i32 16
  %63 = getelementptr inbounds %struct.png_colorspace, ptr %62, i32 0, i32 2
  %64 = getelementptr inbounds %struct.png_XYZ, ptr %63, i32 0, i32 2
  %65 = load i32, ptr %64, align 4
  %66 = load ptr, ptr %17, align 8
  store i32 %65, ptr %66, align 4
  br label %67

67:                                               ; preds = %60, %57
  %68 = load ptr, ptr %18, align 8
  %69 = icmp ne ptr %68, null
  br i1 %69, label %70, label %77

70:                                               ; preds = %67
  %71 = load ptr, ptr %14, align 8
  %72 = getelementptr inbounds %struct.png_info_def, ptr %71, i32 0, i32 16
  %73 = getelementptr inbounds %struct.png_colorspace, ptr %72, i32 0, i32 2
  %74 = getelementptr inbounds %struct.png_XYZ, ptr %73, i32 0, i32 3
  %75 = load i32, ptr %74, align 4
  %76 = load ptr, ptr %18, align 8
  store i32 %75, ptr %76, align 4
  br label %77

77:                                               ; preds = %70, %67
  %78 = load ptr, ptr %19, align 8
  %79 = icmp ne ptr %78, null
  br i1 %79, label %80, label %87

80:                                               ; preds = %77
  %81 = load ptr, ptr %14, align 8
  %82 = getelementptr inbounds %struct.png_info_def, ptr %81, i32 0, i32 16
  %83 = getelementptr inbounds %struct.png_colorspace, ptr %82, i32 0, i32 2
  %84 = getelementptr inbounds %struct.png_XYZ, ptr %83, i32 0, i32 4
  %85 = load i32, ptr %84, align 4
  %86 = load ptr, ptr %19, align 8
  store i32 %85, ptr %86, align 4
  br label %87

87:                                               ; preds = %80, %77
  %88 = load ptr, ptr %20, align 8
  %89 = icmp ne ptr %88, null
  br i1 %89, label %90, label %97

90:                                               ; preds = %87
  %91 = load ptr, ptr %14, align 8
  %92 = getelementptr inbounds %struct.png_info_def, ptr %91, i32 0, i32 16
  %93 = getelementptr inbounds %struct.png_colorspace, ptr %92, i32 0, i32 2
  %94 = getelementptr inbounds %struct.png_XYZ, ptr %93, i32 0, i32 5
  %95 = load i32, ptr %94, align 4
  %96 = load ptr, ptr %20, align 8
  store i32 %95, ptr %96, align 4
  br label %97

97:                                               ; preds = %90, %87
  %98 = load ptr, ptr %21, align 8
  %99 = icmp ne ptr %98, null
  br i1 %99, label %100, label %107

100:                                              ; preds = %97
  %101 = load ptr, ptr %14, align 8
  %102 = getelementptr inbounds %struct.png_info_def, ptr %101, i32 0, i32 16
  %103 = getelementptr inbounds %struct.png_colorspace, ptr %102, i32 0, i32 2
  %104 = getelementptr inbounds %struct.png_XYZ, ptr %103, i32 0, i32 6
  %105 = load i32, ptr %104, align 4
  %106 = load ptr, ptr %21, align 8
  store i32 %105, ptr %106, align 4
  br label %107

107:                                              ; preds = %100, %97
  %108 = load ptr, ptr %22, align 8
  %109 = icmp ne ptr %108, null
  br i1 %109, label %110, label %117

110:                                              ; preds = %107
  %111 = load ptr, ptr %14, align 8
  %112 = getelementptr inbounds %struct.png_info_def, ptr %111, i32 0, i32 16
  %113 = getelementptr inbounds %struct.png_colorspace, ptr %112, i32 0, i32 2
  %114 = getelementptr inbounds %struct.png_XYZ, ptr %113, i32 0, i32 7
  %115 = load i32, ptr %114, align 4
  %116 = load ptr, ptr %22, align 8
  store i32 %115, ptr %116, align 4
  br label %117

117:                                              ; preds = %110, %107
  %118 = load ptr, ptr %23, align 8
  %119 = icmp ne ptr %118, null
  br i1 %119, label %120, label %127

120:                                              ; preds = %117
  %121 = load ptr, ptr %14, align 8
  %122 = getelementptr inbounds %struct.png_info_def, ptr %121, i32 0, i32 16
  %123 = getelementptr inbounds %struct.png_colorspace, ptr %122, i32 0, i32 2
  %124 = getelementptr inbounds %struct.png_XYZ, ptr %123, i32 0, i32 8
  %125 = load i32, ptr %124, align 4
  %126 = load ptr, ptr %23, align 8
  store i32 %125, ptr %126, align 4
  br label %127

127:                                              ; preds = %120, %117
  store i32 4, ptr %12, align 4
  br label %129

128:                                              ; preds = %29, %26, %11
  store i32 0, ptr %12, align 4
  br label %129

129:                                              ; preds = %128, %127
  %130 = load i32, ptr %12, align 4
  ret i32 %130
}